	.file	"stackframe.c"
	.text
	.globl	main
	.type	main, @function
main:
.LFB0:
	.cfi_startproc
	pushq	%rbp
	.cfi_def_cfa_offset 16
	.cfi_offset 6, -16
	movq	%rsp, %rbp
	.cfi_def_cfa_register 6
	subq	$16, %rsp
	movl	$2, -12(%rbp)
	movl	$3, -8(%rbp)
	movl	-8(%rbp), %edx
	movl	-12(%rbp), %eax
	movl	%edx, %esi
	movl	%eax, %edi
	call	func1
	movl	%eax, -4(%rbp)
	movl	-4(%rbp), %eax
	leave
	.cfi_def_cfa 7, 8
	ret
	.cfi_endproc
.LFE0:
	.size	main, .-main
	.globl	func1
	.type	func1, @function
func1:
.LFB1:
	.cfi_startproc
	pushq	%rbp
	.cfi_def_cfa_offset 16
	.cfi_offset 6, -16
	movq	%rsp, %rbp
	.cfi_def_cfa_register 6
	subq	$32, %rsp
	movl	%edi, -20(%rbp)
	movl	%esi, -24(%rbp)
	movl	-20(%rbp), %edx
	movl	-24(%rbp), %eax
	addl	%edx, %eax
	movl	%eax, -8(%rbp)
	movl	-8(%rbp), %eax
	movl	%eax, %edi
	call	func2
	movl	%eax, -4(%rbp)
	movl	-8(%rbp), %edx
	movl	-4(%rbp), %eax
	addl	%edx, %eax
	leave
	.cfi_def_cfa 7, 8
	ret
	.cfi_endproc
.LFE1:
	.size	func1, .-func1
	.globl	func2
	.type	func2, @function
func2:
.LFB2:
	.cfi_startproc
	pushq	%rbp
	.cfi_def_cfa_offset 16
	.cfi_offset 6, -16
	movq	%rsp, %rbp
	.cfi_def_cfa_register 6
	movl	%edi, -20(%rbp)
	movl	-20(%rbp), %eax
	addl	$2, %eax
	movl	%eax, -4(%rbp)
	movl	-4(%rbp), %eax
	imull	-4(%rbp), %eax
	popq	%rbp
	.cfi_def_cfa 7, 8
	ret
	.cfi_endproc
.LFE2:
	.size	func2, .-func2
	.ident	"GCC: (Ubuntu 5.4.0-6ubuntu1~16.04.5) 5.4.0 20160609"
	.section	.note.GNU-stack,"",@progbits
